; Function Attrs: nounwind uwtable
define ptr @l_Lean_Elab_Tactic_BVDecide_Frontend_Normalize_neg__eq__not__add___lambda__2(ptr noundef %0, ptr noundef %1, ptr noundef %2, ptr noundef %3, ptr noundef %4, ptr noundef %5, ptr noundef %6, ptr noundef %7, ptr noundef %8, ptr noundef %9) #0 {
  %11 = load ptr, ptr @l_Lean_Elab_Tactic_BVDecide_Frontend_Normalize_bv__and___lambda__5___closed__1, align 8, !tbaa !4
  %12 = tail call ptr @l_Lean_Expr_cleanupAnnotations(ptr noundef %0) #5
  %13 = tail call zeroext i8 @l_Lean_Expr_isApp(ptr noundef %12) #5
  %14 = icmp eq i8 %13, 0
  br i1 %14, label %15, label %35

15:                                               ; preds = %10
  %16 = ptrtoint ptr %12 to i64
  %17 = and i64 %16, 1
  %.not80 = icmp eq i64 %17, 0
  br i1 %.not80, label %18, label %lean_dec.exit57

18:                                               ; preds = %15
  %19 = load i32, ptr %12, align 4, !tbaa !8
  %20 = icmp sgt i32 %19, 1
  br i1 %20, label %21, label %23, !prof !11

21:                                               ; preds = %18
  %22 = add nsw i32 %19, -1
  store i32 %22, ptr %12, align 4, !tbaa !8
  br label %lean_dec.exit57

23:                                               ; preds = %18
  %.not.i = icmp eq i32 %19, 0
  br i1 %.not.i, label %lean_dec.exit57, label %24

24:                                               ; preds = %23
  tail call void @lean_dec_ref_cold(ptr noundef nonnull %12) #5
  br label %lean_dec.exit57

lean_dec.exit57:                                  ; preds = %24, %23, %21, %15
  %25 = ptrtoint ptr %1 to i64
  %26 = and i64 %25, 1
  %.not81 = icmp eq i64 %26, 0
  br i1 %.not81, label %27, label %lean_dec.exit56

27:                                               ; preds = %lean_dec.exit57
  %28 = load i32, ptr %1, align 4, !tbaa !8
  %29 = icmp sgt i32 %28, 1
  br i1 %29, label %30, label %32, !prof !11

30:                                               ; preds = %27
  %31 = add nsw i32 %28, -1
  store i32 %31, ptr %1, align 4, !tbaa !8
  br label %lean_dec.exit56

32:                                               ; preds = %27
  %.not.i58 = icmp eq i32 %28, 0
  br i1 %.not.i58, label %lean_dec.exit56, label %33

33:                                               ; preds = %32
  tail call void @lean_dec_ref_cold(ptr noundef nonnull %1) #5
  br label %lean_dec.exit56

lean_dec.exit56:                                  ; preds = %33, %32, %30, %lean_dec.exit57
  %34 = tail call ptr @lean_apply_9(ptr noundef %11, ptr noundef nonnull inttoptr (i64 1 to ptr), ptr noundef %2, ptr noundef %3, ptr noundef %4, ptr noundef %5, ptr noundef %6, ptr noundef %7, ptr noundef %8, ptr noundef %9) #5
  br label %lean_dec.exit

35:                                               ; preds = %10
  %36 = tail call ptr @l_Lean_Expr_appArg(ptr noundef %12, ptr noundef nonnull inttoptr (i64 1 to ptr)) #5
  %37 = tail call ptr @l_Lean_Expr_appFnCleanup(ptr noundef %12, ptr noundef nonnull inttoptr (i64 1 to ptr)) #5
  %38 = load ptr, ptr @l_Lean_Elab_Tactic_BVDecide_Frontend_Normalize_bv__and___lambda__5___closed__2, align 8, !tbaa !4
  %39 = tail call zeroext i8 @l_Lean_Expr_isConstOf(ptr noundef %37, ptr noundef %38) #5
  %40 = ptrtoint ptr %37 to i64
  %41 = and i64 %40, 1
  %.not = icmp eq i64 %41, 0
  br i1 %.not, label %42, label %lean_dec.exit55

42:                                               ; preds = %35
  %43 = load i32, ptr %37, align 4, !tbaa !8
  %44 = icmp sgt i32 %43, 1
  br i1 %44, label %45, label %47, !prof !11

45:                                               ; preds = %42
  %46 = add nsw i32 %43, -1
  store i32 %46, ptr %37, align 4, !tbaa !8
  br label %lean_dec.exit55

47:                                               ; preds = %42
  %.not.i60 = icmp eq i32 %43, 0
  br i1 %.not.i60, label %lean_dec.exit55, label %48

48:                                               ; preds = %47
  tail call void @lean_dec_ref_cold(ptr noundef nonnull %37) #5
  br label %lean_dec.exit55

lean_dec.exit55:                                  ; preds = %48, %47, %45, %35
  %49 = icmp eq i8 %39, 0
  br i1 %49, label %50, label %70

50:                                               ; preds = %lean_dec.exit55
  %51 = ptrtoint ptr %36 to i64
  %52 = and i64 %51, 1
  %.not78 = icmp eq i64 %52, 0
  br i1 %.not78, label %53, label %lean_dec.exit54

53:                                               ; preds = %50
  %54 = load i32, ptr %36, align 4, !tbaa !8
  %55 = icmp sgt i32 %54, 1
  br i1 %55, label %56, label %58, !prof !11

56:                                               ; preds = %53
  %57 = add nsw i32 %54, -1
  store i32 %57, ptr %36, align 4, !tbaa !8
  br label %lean_dec.exit54

58:                                               ; preds = %53
  %.not.i62 = icmp eq i32 %54, 0
  br i1 %.not.i62, label %lean_dec.exit54, label %59

59:                                               ; preds = %58
  tail call void @lean_dec_ref_cold(ptr noundef nonnull %36) #5
  br label %lean_dec.exit54

lean_dec.exit54:                                  ; preds = %59, %58, %56, %50
  %60 = ptrtoint ptr %1 to i64
  %61 = and i64 %60, 1
  %.not79 = icmp eq i64 %61, 0
  br i1 %.not79, label %62, label %lean_dec.exit53

62:                                               ; preds = %lean_dec.exit54
  %63 = load i32, ptr %1, align 4, !tbaa !8
  %64 = icmp sgt i32 %63, 1
  br i1 %64, label %65, label %67, !prof !11

65:                                               ; preds = %62
  %66 = add nsw i32 %63, -1
  store i32 %66, ptr %1, align 4, !tbaa !8
  br label %lean_dec.exit53

67:                                               ; preds = %62
  %.not.i64 = icmp eq i32 %63, 0
  br i1 %.not.i64, label %lean_dec.exit53, label %68

68:                                               ; preds = %67
  tail call void @lean_dec_ref_cold(ptr noundef nonnull %1) #5
  br label %lean_dec.exit53

lean_dec.exit53:                                  ; preds = %68, %67, %65, %lean_dec.exit54
  %69 = tail call ptr @lean_apply_9(ptr noundef %11, ptr noundef nonnull inttoptr (i64 1 to ptr), ptr noundef %2, ptr noundef %3, ptr noundef %4, ptr noundef %5, ptr noundef %6, ptr noundef %7, ptr noundef %8, ptr noundef %9) #5
  br label %lean_dec.exit

70:                                               ; preds = %lean_dec.exit55
  %71 = tail call ptr @l_Lean_Elab_Tactic_BVDecide_Frontend_Normalize_neg__eq__not__add___lambda__1(ptr noundef %1, ptr noundef %36, ptr poison, ptr poison, ptr poison, ptr noundef %5, ptr noundef %6, ptr noundef %7, ptr noundef %8, ptr noundef %9)
  %72 = ptrtoint ptr %4 to i64
  %73 = and i64 %72, 1
  %.not74 = icmp eq i64 %73, 0
  br i1 %.not74, label %74, label %lean_dec.exit52

74:                                               ; preds = %70
  %75 = load i32, ptr %4, align 4, !tbaa !8
  %76 = icmp sgt i32 %75, 1
  br i1 %76, label %77, label %79, !prof !11

77:                                               ; preds = %74
  %78 = add nsw i32 %75, -1
  store i32 %78, ptr %4, align 4, !tbaa !8
  br label %lean_dec.exit52

79:                                               ; preds = %74
  %.not.i66 = icmp eq i32 %75, 0
  br i1 %.not.i66, label %lean_dec.exit52, label %80

80:                                               ; preds = %79
  tail call void @lean_dec_ref_cold(ptr noundef nonnull %4) #5
  br label %lean_dec.exit52

lean_dec.exit52:                                  ; preds = %80, %79, %77, %70
  %81 = ptrtoint ptr %3 to i64
  %82 = and i64 %81, 1
  %.not75 = icmp eq i64 %82, 0
  br i1 %.not75, label %83, label %lean_dec.exit51

83:                                               ; preds = %lean_dec.exit52
  %84 = load i32, ptr %3, align 4, !tbaa !8
  %85 = icmp sgt i32 %84, 1
  br i1 %85, label %86, label %88, !prof !11

86:                                               ; preds = %83
  %87 = add nsw i32 %84, -1
  store i32 %87, ptr %3, align 4, !tbaa !8
  br label %lean_dec.exit51

88:                                               ; preds = %83
  %.not.i68 = icmp eq i32 %84, 0
  br i1 %.not.i68, label %lean_dec.exit51, label %89

89:                                               ; preds = %88
  tail call void @lean_dec_ref_cold(ptr noundef nonnull %3) #5
  br label %lean_dec.exit51

lean_dec.exit51:                                  ; preds = %89, %88, %86, %lean_dec.exit52
  %90 = ptrtoint ptr %2 to i64
  %91 = and i64 %90, 1
  %.not76 = icmp eq i64 %91, 0
  br i1 %.not76, label %92, label %lean_dec.exit50

92:                                               ; preds = %lean_dec.exit51
  %93 = load i32, ptr %2, align 4, !tbaa !8
  %94 = icmp sgt i32 %93, 1
  br i1 %94, label %95, label %97, !prof !11

95:                                               ; preds = %92
  %96 = add nsw i32 %93, -1
  store i32 %96, ptr %2, align 4, !tbaa !8
  br label %lean_dec.exit50

97:                                               ; preds = %92
  %.not.i70 = icmp eq i32 %93, 0
  br i1 %.not.i70, label %lean_dec.exit50, label %98

98:                                               ; preds = %97
  tail call void @lean_dec_ref_cold(ptr noundef nonnull %2) #5
  br label %lean_dec.exit50

lean_dec.exit50:                                  ; preds = %98, %97, %95, %lean_dec.exit51
  %99 = ptrtoint ptr %36 to i64
  %100 = and i64 %99, 1
  %.not77 = icmp eq i64 %100, 0
  br i1 %.not77, label %101, label %lean_dec.exit

101:                                              ; preds = %lean_dec.exit50
  %102 = load i32, ptr %36, align 4, !tbaa !8
  %103 = icmp sgt i32 %102, 1
  br i1 %103, label %104, label %106, !prof !11

104:                                              ; preds = %101
  %105 = add nsw i32 %102, -1
  store i32 %105, ptr %36, align 4, !tbaa !8
  br label %lean_dec.exit

106:                                              ; preds = %101
  %.not.i72 = icmp eq i32 %102, 0
  br i1 %.not.i72, label %lean_dec.exit, label %107

107:                                              ; preds = %106
  tail call void @lean_dec_ref_cold(ptr noundef nonnull %36) #5
  br label %lean_dec.exit

lean_dec.exit:                                    ; preds = %lean_dec.exit50, %104, %106, %107, %lean_dec.exit53, %lean_dec.exit56
  %.0 = phi ptr [ %34, %lean_dec.exit56 ], [ %69, %lean_dec.exit53 ], [ %71, %107 ], [ %71, %106 ], [ %71, %104 ], [ %71, %lean_dec.exit50 ]
  ret ptr %.0
}